target datalayout = "e-m:e-p270:32:32-p271:32:32-p272:64:64-i64:64-i128:128-f80:128-n8:16:32:64-S128"
target triple = "x86_64-pc-linux-gnu"

%"class.rocksdb::MemTableRep" = type { ptr, ptr }

; Function Attrs: mustprogress uwtable
define noundef ptr @_ZN7rocksdb11MemTableRep8AllocateEmPPc(ptr noundef nonnull align 8 dereferenceable(16) %0, i64 noundef %1, ptr noundef %2) unnamed_addr #4 align 2 {
  %4 = alloca ptr, align 8
  %5 = alloca i64, align 8
  %6 = alloca ptr, align 8
  store ptr %0, ptr %4, align 8, !tbaa !384
  store i64 %1, ptr %5, align 8, !tbaa !4
  store ptr %2, ptr %6, align 8, !tbaa !484
  %7 = load ptr, ptr %4, align 8
  %8 = getelementptr inbounds nuw %"class.rocksdb::MemTableRep", ptr %7, i32 0, i32 1
  %9 = load ptr, ptr %8, align 8, !tbaa !486
  %10 = load i64, ptr %5, align 8, !tbaa !4
  %11 = load ptr, ptr %9, align 8, !tbaa !26
  %12 = getelementptr inbounds ptr, ptr %11, i64 2
  %13 = load ptr, ptr %12, align 8
  %14 = call noundef ptr %13(ptr noundef nonnull align 8 dereferenceable(8) %9, i64 noundef %10)
  %15 = load ptr, ptr %6, align 8, !tbaa !484
  store ptr %14, ptr %15, align 8, !tbaa !28
  %16 = load ptr, ptr %6, align 8, !tbaa !484
  %17 = load ptr, ptr %16, align 8, !tbaa !28
  ret ptr %17
}