; Function Attrs: mustprogress uwtable
define noundef ptr @_ZN7rocksdb11MemTableRep8AllocateEmPPc(ptr noundef nonnull readonly align 8 captures(none) dereferenceable(16) %0, i64 noundef %1, ptr noundef writeonly captures(none) initializes((0, 8)) %2) unnamed_addr #4 align 2 {
  %4 = getelementptr inbounds nuw i8, ptr %0, i64 8
  %5 = load ptr, ptr %4, align 8, !tbaa !461
  %6 = load ptr, ptr %5, align 8, !tbaa !19
  %7 = getelementptr inbounds nuw i8, ptr %6, i64 16
  %8 = load ptr, ptr %7, align 8
  %9 = tail call noundef ptr %8(ptr noundef nonnull align 8 dereferenceable(8) %5, i64 noundef %1)
  store ptr %9, ptr %2, align 8, !tbaa !423
  ret ptr %9
}